target datalayout = "e-m:e-p270:32:32-p271:32:32-p272:64:64-i64:64-i128:128-f80:128-n8:16:32:64-S128"
target triple = "x86_64-pc-linux-gnu"

%struct._object = type { %union.anon.41, ptr }
%union.anon.41 = type { i64 }
%struct.PyVarObject = type { %struct._object, i64 }
%struct._ts = type { ptr, ptr, ptr, i64, %struct.anon.805, i32, i32, i32, i32, i32, i32, i32, i32, ptr, ptr, ptr, ptr, ptr, ptr, ptr, ptr, i32, ptr, i64, i64, ptr, i64, i32, ptr, ptr, ptr, i64, i64, ptr, ptr, ptr, %struct._err_stackitem, ptr, i64, ptr, ptr }
%struct.anon.805 = type { i32 }
%struct._err_stackitem = type { ptr, ptr }
%struct.anon.42 = type { i32, i32 }
%struct._PyInterpreterFrame = type { %union._PyStackRef, ptr, %union._PyStackRef, ptr, ptr, ptr, ptr, ptr, ptr, i16, i8, i8, [1 x %union._PyStackRef] }
%union._PyStackRef = type { i64 }
%struct.PyCodeObject = type { %struct.PyVarObject, ptr, ptr, ptr, i32, i32, i32, i32, i32, i32, i32, i32, i32, i32, i32, i32, ptr, ptr, ptr, ptr, ptr, ptr, ptr, ptr, ptr, i64, ptr, i64, i32, ptr, [1 x i8] }
%union._Py_CODEUNIT = type { i16 }

; Function Attrs: inlinehint nounwind uwtable
define internal ptr @_PyFrame_GetCode(ptr noundef %0) #1 {
  %2 = alloca ptr, align 8
  %3 = alloca ptr, align 8
  store ptr %0, ptr %2, align 8, !tbaa !290
  call void @llvm.lifetime.start.p0(i64 8, ptr %3) #10
  %4 = load ptr, ptr %2, align 8, !tbaa !290
  %5 = getelementptr inbounds nuw %struct._PyInterpreterFrame, ptr %4, i32 0, i32 0
  %6 = load i64, ptr %5, align 8, !tbaa !207
  %7 = inttoptr i64 %6 to ptr
  store ptr %7, ptr %3, align 8, !tbaa !216
  %8 = load ptr, ptr %3, align 8, !tbaa !216
  call void @llvm.lifetime.end.p0(i64 8, ptr %3) #10
  ret ptr %8
}

; Function Attrs: inlinehint nounwind uwtable
define internal ptr @_PyFrame_GetBytecode(ptr noundef %0) #1 {
  %2 = alloca ptr, align 8
  store ptr %0, ptr %2, align 8, !tbaa !290
  %3 = load ptr, ptr %2, align 8, !tbaa !290
  %4 = call ptr @_PyFrame_GetCode(ptr noundef %3)
  %5 = getelementptr inbounds nuw %struct.PyCodeObject, ptr %4, i32 0, i32 30
  %6 = getelementptr inbounds [1 x i8], ptr %5, i64 0, i64 0
  ret ptr %6
}

; Function Attrs: alwaysinline nounwind uwtable
define internal void @Py_INCREF(ptr noundef %0) #8 {
  %2 = alloca ptr, align 8
  %3 = alloca i32, align 4
  %4 = alloca i32, align 4
  store ptr %0, ptr %2, align 8, !tbaa !216
  call void @llvm.lifetime.start.p0(i64 4, ptr %3) #10
  %5 = load ptr, ptr %2, align 8, !tbaa !216
  %6 = getelementptr inbounds nuw %struct._object, ptr %5, i32 0, i32 0
  %7 = getelementptr inbounds nuw %struct.anon.42, ptr %6, i32 0, i32 0
  %8 = load i32, ptr %7, align 8, !tbaa !207
  store i32 %8, ptr %3, align 4, !tbaa !197
  %9 = load i32, ptr %3, align 4, !tbaa !197
  %10 = icmp slt i32 %9, 0
  br i1 %10, label %11, label %12

11:                                               ; preds = %1
  store i32 1, ptr %4, align 4
  br label %18

12:                                               ; preds = %1
  %13 = load i32, ptr %3, align 4, !tbaa !197
  %14 = add i32 %13, 1
  %15 = load ptr, ptr %2, align 8, !tbaa !216
  %16 = getelementptr inbounds nuw %struct._object, ptr %15, i32 0, i32 0
  %17 = getelementptr inbounds nuw %struct.anon.42, ptr %16, i32 0, i32 0
  store i32 %14, ptr %17, align 8, !tbaa !207
  store i32 0, ptr %4, align 4
  br label %18

18:                                               ; preds = %12, %11
  call void @llvm.lifetime.end.p0(i64 4, ptr %3) #10
  %19 = load i32, ptr %4, align 4
  switch i32 %19, label %21 [
    i32 0, label %20
    i32 1, label %20
  ]

20:                                               ; preds = %18, %18
  ret void

21:                                               ; preds = %18
  unreachable
}

; Function Attrs: inlinehint nounwind uwtable
define internal zeroext i1 @_PyFrame_IsIncomplete(ptr noundef %0) #1 {
  %2 = alloca i1, align 1
  %3 = alloca ptr, align 8
  store ptr %0, ptr %3, align 8, !tbaa !290
  %4 = load ptr, ptr %3, align 8, !tbaa !290
  %5 = getelementptr inbounds nuw %struct._PyInterpreterFrame, ptr %4, i32 0, i32 10
  %6 = load i8, ptr %5, align 2, !tbaa !343
  %7 = sext i8 %6 to i32
  %8 = icmp sge i32 %7, 3
  br i1 %8, label %9, label %10

9:                                                ; preds = %1
  store i1 true, ptr %2, align 1
  br label %31

10:                                               ; preds = %1
  %11 = load ptr, ptr %3, align 8, !tbaa !290
  %12 = getelementptr inbounds nuw %struct._PyInterpreterFrame, ptr %11, i32 0, i32 10
  %13 = load i8, ptr %12, align 2, !tbaa !343
  %14 = sext i8 %13 to i32
  %15 = icmp ne i32 %14, 1
  br i1 %15, label %16, label %29

16:                                               ; preds = %10
  %17 = load ptr, ptr %3, align 8, !tbaa !290
  %18 = getelementptr inbounds nuw %struct._PyInterpreterFrame, ptr %17, i32 0, i32 7
  %19 = load ptr, ptr %18, align 8, !tbaa !344
  %20 = load ptr, ptr %3, align 8, !tbaa !290
  %21 = call ptr @_PyFrame_GetBytecode(ptr noundef %20)
  %22 = load ptr, ptr %3, align 8, !tbaa !290
  %23 = call ptr @_PyFrame_GetCode(ptr noundef %22)
  %24 = getelementptr inbounds nuw %struct.PyCodeObject, ptr %23, i32 0, i32 28
  %25 = load i32, ptr %24, align 8, !tbaa !345
  %26 = sext i32 %25 to i64
  %27 = getelementptr %union._Py_CODEUNIT, ptr %21, i64 %26
  %28 = icmp ult ptr %19, %27
  br label %29

29:                                               ; preds = %16, %10
  %30 = phi i1 [ false, %10 ], [ %28, %16 ]
  store i1 %30, ptr %2, align 1
  br label %31

31:                                               ; preds = %29, %9
  %32 = load i1, ptr %2, align 1
  ret i1 %32
}

; Function Attrs: inlinehint nounwind uwtable
define internal void @Py_XINCREF(ptr noundef %0) #1 {
  %2 = alloca ptr, align 8
  store ptr %0, ptr %2, align 8, !tbaa !216
  %3 = load ptr, ptr %2, align 8, !tbaa !216
  %4 = icmp ne ptr %3, null
  br i1 %4, label %5, label %7

5:                                                ; preds = %1
  %6 = load ptr, ptr %2, align 8, !tbaa !216
  call void @Py_INCREF(ptr noundef %6)
  br label %7

7:                                                ; preds = %5, %1
  ret void
}

; Function Attrs: inlinehint nounwind uwtable
define internal ptr @_PyFrame_GetFirstComplete(ptr noundef %0) #1 {
  %2 = alloca ptr, align 8
  store ptr %0, ptr %2, align 8, !tbaa !290
  br label %3

3:                                                ; preds = %11, %1
  %4 = load ptr, ptr %2, align 8, !tbaa !290
  %5 = icmp ne ptr %4, null
  br i1 %5, label %6, label %9

6:                                                ; preds = %3
  %7 = load ptr, ptr %2, align 8, !tbaa !290
  %8 = call zeroext i1 @_PyFrame_IsIncomplete(ptr noundef %7)
  br label %9

9:                                                ; preds = %6, %3
  %10 = phi i1 [ false, %3 ], [ %8, %6 ]
  br i1 %10, label %11, label %15

11:                                               ; preds = %9
  %12 = load ptr, ptr %2, align 8, !tbaa !290
  %13 = getelementptr inbounds nuw %struct._PyInterpreterFrame, ptr %12, i32 0, i32 1
  %14 = load ptr, ptr %13, align 8, !tbaa !306
  store ptr %14, ptr %2, align 8, !tbaa !290
  br label %3, !llvm.loop !307

15:                                               ; preds = %9
  %16 = load ptr, ptr %2, align 8, !tbaa !290
  ret ptr %16
}

; Function Attrs: inlinehint nounwind uwtable
define internal ptr @_Py_XNewRef(ptr noundef %0) #1 {
  %2 = alloca ptr, align 8
  store ptr %0, ptr %2, align 8, !tbaa !216
  %3 = load ptr, ptr %2, align 8, !tbaa !216
  call void @Py_XINCREF(ptr noundef %3)
  %4 = load ptr, ptr %2, align 8, !tbaa !216
  ret ptr %4
}

; Function Attrs: inlinehint nounwind uwtable
define internal ptr @_PyFrame_GetFrameObject(ptr noundef %0) #1 {
  %2 = alloca ptr, align 8
  %3 = alloca ptr, align 8
  %4 = alloca ptr, align 8
  %5 = alloca i32, align 4
  store ptr %0, ptr %3, align 8, !tbaa !290
  call void @llvm.lifetime.start.p0(i64 8, ptr %4) #10
  %6 = load ptr, ptr %3, align 8, !tbaa !290
  %7 = getelementptr inbounds nuw %struct._PyInterpreterFrame, ptr %6, i32 0, i32 6
  %8 = load ptr, ptr %7, align 8, !tbaa !293
  store ptr %8, ptr %4, align 8, !tbaa !291
  %9 = load ptr, ptr %4, align 8, !tbaa !291
  %10 = icmp ne ptr %9, null
  br i1 %10, label %11, label %13

11:                                               ; preds = %1
  %12 = load ptr, ptr %4, align 8, !tbaa !291
  store ptr %12, ptr %2, align 8
  store i32 1, ptr %5, align 4
  br label %16

13:                                               ; preds = %1
  %14 = load ptr, ptr %3, align 8, !tbaa !290
  %15 = call ptr @_PyFrame_MakeAndSetFrameObject(ptr noundef %14)
  store ptr %15, ptr %2, align 8
  store i32 1, ptr %5, align 4
  br label %16

16:                                               ; preds = %13, %11
  call void @llvm.lifetime.end.p0(i64 8, ptr %4) #10
  %17 = load ptr, ptr %2, align 8
  ret ptr %17
}

; Function Attrs: inlinehint nounwind uwtable
define internal ptr @_PyThreadState_GetFrame(ptr noundef %0) #1 {
  %2 = alloca ptr, align 8
  store ptr %0, ptr %2, align 8, !tbaa !4
  %3 = load ptr, ptr %2, align 8, !tbaa !4
  %4 = getelementptr inbounds nuw %struct._ts, ptr %3, i32 0, i32 13
  %5 = load ptr, ptr %4, align 8, !tbaa !273
  %6 = call ptr @_PyFrame_GetFirstComplete(ptr noundef %5)
  ret ptr %6
}

; Function Attrs: nounwind uwtable
define dso_local ptr @PyThreadState_GetFrame(ptr noundef %0) #0 {
  %2 = alloca ptr, align 8
  %3 = alloca ptr, align 8
  %4 = alloca ptr, align 8
  %5 = alloca i32, align 4
  %6 = alloca ptr, align 8
  store ptr %0, ptr %3, align 8, !tbaa !4
  call void @llvm.lifetime.start.p0(i64 8, ptr %4) #10
  %7 = load ptr, ptr %3, align 8, !tbaa !4
  %8 = call ptr @_PyThreadState_GetFrame(ptr noundef %7)
  store ptr %8, ptr %4, align 8, !tbaa !290
  %9 = load ptr, ptr %4, align 8, !tbaa !290
  %10 = icmp eq ptr %9, null
  br i1 %10, label %11, label %12

11:                                               ; preds = %1
  store ptr null, ptr %2, align 8
  store i32 1, ptr %5, align 4
  br label %21

12:                                               ; preds = %1
  call void @llvm.lifetime.start.p0(i64 8, ptr %6) #10
  %13 = load ptr, ptr %4, align 8, !tbaa !290
  %14 = call ptr @_PyFrame_GetFrameObject(ptr noundef %13)
  store ptr %14, ptr %6, align 8, !tbaa !291
  %15 = load ptr, ptr %6, align 8, !tbaa !291
  %16 = icmp eq ptr %15, null
  br i1 %16, label %17, label %18

17:                                               ; preds = %12
  call void @PyErr_Clear()
  br label %18

18:                                               ; preds = %17, %12
  %19 = load ptr, ptr %6, align 8, !tbaa !291
  %20 = call ptr @_Py_XNewRef(ptr noundef %19)
  store ptr %20, ptr %2, align 8
  store i32 1, ptr %5, align 4
  call void @llvm.lifetime.end.p0(i64 8, ptr %6) #10
  br label %21

21:                                               ; preds = %18, %11
  call void @llvm.lifetime.end.p0(i64 8, ptr %4) #10
  %22 = load ptr, ptr %2, align 8
  ret ptr %22
}