; Function Attrs: nounwind uwtable
define dso_local noundef ptr @PyThreadState_GetFrame(ptr noundef readonly captures(none) %0) local_unnamed_addr #1 {
  %2 = getelementptr i8, ptr %0, i64 72
  %.val = load ptr, ptr %2, align 8, !tbaa !264
  %.not7.i.i = icmp eq ptr %.val, null
  br i1 %.not7.i.i, label %_Py_XNewRef.exit, label %.lr.ph.i.i

.lr.ph.i.i:                                       ; preds = %1, %_PyFrame_IsIncomplete.exit.thread.i.i
  %.08.i.i = phi ptr [ %17, %_PyFrame_IsIncomplete.exit.thread.i.i ], [ %.val, %1 ]
  %3 = getelementptr inbounds nuw i8, ptr %.08.i.i, i64 74
  %4 = load i8, ptr %3, align 2, !tbaa !288
  %5 = icmp sgt i8 %4, 2
  br i1 %5, label %_PyFrame_IsIncomplete.exit.thread.i.i, label %6

6:                                                ; preds = %.lr.ph.i.i
  %.not.i.i.i = icmp eq i8 %4, 1
  br i1 %.not.i.i.i, label %_PyThreadState_GetFrame.exit, label %_PyFrame_IsIncomplete.exit.i.i

_PyFrame_IsIncomplete.exit.i.i:                   ; preds = %6
  %7 = getelementptr inbounds nuw i8, ptr %.08.i.i, i64 56
  %8 = load ptr, ptr %7, align 8, !tbaa !292
  %.val7.i.i.i = load i64, ptr %.08.i.i, align 8, !tbaa !223
  %9 = inttoptr i64 %.val7.i.i.i to ptr
  %10 = getelementptr inbounds nuw i8, ptr %9, i64 208
  %11 = getelementptr inbounds nuw i8, ptr %9, i64 192
  %12 = load i32, ptr %11, align 8, !tbaa !293
  %13 = sext i32 %12 to i64
  %14 = getelementptr %union._Py_CODEUNIT, ptr %10, i64 %13
  %15 = icmp ult ptr %8, %14
  br i1 %15, label %_PyFrame_IsIncomplete.exit.thread.i.i, label %_PyThreadState_GetFrame.exit

_PyFrame_IsIncomplete.exit.thread.i.i:            ; preds = %_PyFrame_IsIncomplete.exit.i.i, %.lr.ph.i.i
  %16 = getelementptr inbounds nuw i8, ptr %.08.i.i, i64 8
  %17 = load ptr, ptr %16, align 8, !tbaa !295
  %.not.i.i = icmp eq ptr %17, null
  br i1 %.not.i.i, label %_Py_XNewRef.exit, label %.lr.ph.i.i, !llvm.loop !296

_PyThreadState_GetFrame.exit:                     ; preds = %_PyFrame_IsIncomplete.exit.i.i, %6
  %18 = getelementptr inbounds nuw i8, ptr %.08.i.i, i64 48
  %19 = load ptr, ptr %18, align 8, !tbaa !297
  %.not.i = icmp eq ptr %19, null
  br i1 %.not.i, label %_PyFrame_GetFrameObject.exit, label %.split

_PyFrame_GetFrameObject.exit:                     ; preds = %_PyThreadState_GetFrame.exit
  %20 = tail call ptr @_PyFrame_MakeAndSetFrameObject(ptr noundef nonnull %.08.i.i) #16
  %21 = icmp eq ptr %20, null
  br i1 %21, label %.split7, label %.split

.split:                                           ; preds = %_PyThreadState_GetFrame.exit, %_PyFrame_GetFrameObject.exit
  %.0.i13 = phi ptr [ %20, %_PyFrame_GetFrameObject.exit ], [ %19, %_PyThreadState_GetFrame.exit ]
  %22 = load i32, ptr %.0.i13, align 8, !tbaa !223
  %23 = icmp slt i32 %22, 0
  br i1 %23, label %_Py_XNewRef.exit, label %24

24:                                               ; preds = %.split
  %25 = add nuw i32 %22, 1
  store i32 %25, ptr %.0.i13, align 8, !tbaa !223
  br label %_Py_XNewRef.exit

.split7:                                          ; preds = %_PyFrame_GetFrameObject.exit
  tail call void @PyErr_Clear() #16
  br label %_Py_XNewRef.exit

_Py_XNewRef.exit:                                 ; preds = %_PyFrame_IsIncomplete.exit.thread.i.i, %1, %24, %.split, %.split7
  %.0 = phi ptr [ null, %.split7 ], [ %.0.i13, %.split ], [ %.0.i13, %24 ], [ null, %1 ], [ null, %_PyFrame_IsIncomplete.exit.thread.i.i ]
  ret ptr %.0
}